target datalayout = "e-m:e-p270:32:32-p271:32:32-p272:64:64-i64:64-i128:128-f80:128-n8:16:32:64-S128"
target triple = "x86_64-pc-linux-gnu"

%"class.std::function" = type { %"class.std::_Function_base", ptr }
%"class.std::_Function_base" = type { %"union.std::_Any_data", ptr }
%"union.std::_Any_data" = type { %"union.std::_Nocopy_types" }
%"union.std::_Nocopy_types" = type { { i64, i64 } }
%"struct.std::__detail::_Hash_node_base" = type { ptr }
%"struct.std::__detail::_Prime_rehash_policy" = type { float, i64 }
%"struct.folly::detail::SingletonThreadLocalState::LocalCache" = type { ptr }
%"class.folly::test::ThreadTimestamps" = type { %"class.std::vector" }
%"class.std::vector" = type { %"struct.std::_Vector_base" }
%"struct.std::_Vector_base" = type { %"struct.std::_Vector_base<folly::test::DSchedTimestamp, std::allocator<folly::test::DSchedTimestamp>>::_Vector_impl" }
%"struct.std::_Vector_base<folly::test::DSchedTimestamp, std::allocator<folly::test::DSchedTimestamp>>::_Vector_impl" = type { %"struct.std::_Vector_base<folly::test::DSchedTimestamp, std::allocator<folly::test::DSchedTimestamp>>::_Vector_impl_data" }
%"struct.std::_Vector_base<folly::test::DSchedTimestamp, std::allocator<folly::test::DSchedTimestamp>>::_Vector_impl_data" = type { ptr, ptr, ptr }
%"struct.folly::test::DSchedThreadId" = type { i32 }
%"struct.folly::test::(anonymous namespace)::PerThreadState" = type { ptr, ptr, i8, %"struct.folly::test::DSchedThreadId", %"class.std::function.59" }
%"class.std::function.59" = type { %"class.std::_Function_base", ptr }
%"class.folly::test::DeterministicSchedule" = type { %"class.std::function.13", %"class.std::vector.16", %"class.std::unordered_set", %"class.std::unordered_map.40", %"class.std::unordered_map.40", %"class.std::vector.54", %"class.folly::test::ThreadTimestamps", i32, i64 }
%"class.std::function.13" = type { %"class.std::_Function_base", ptr }
%"class.std::vector.16" = type { %"struct.std::_Vector_base.17" }
%"struct.std::_Vector_base.17" = type { %"struct.std::_Vector_base<folly::test::Semaphore *, std::allocator<folly::test::Semaphore *>>::_Vector_impl" }
%"struct.std::_Vector_base<folly::test::Semaphore *, std::allocator<folly::test::Semaphore *>>::_Vector_impl" = type { %"struct.std::_Vector_base<folly::test::Semaphore *, std::allocator<folly::test::Semaphore *>>::_Vector_impl_data" }
%"struct.std::_Vector_base<folly::test::Semaphore *, std::allocator<folly::test::Semaphore *>>::_Vector_impl_data" = type { ptr, ptr, ptr }
%"class.std::unordered_set" = type { %"class.std::_Hashtable.21" }
%"class.std::_Hashtable.21" = type { ptr, i64, %"struct.std::__detail::_Hash_node_base", i64, %"struct.std::__detail::_Prime_rehash_policy", ptr }
%"class.std::unordered_map.40" = type { %"class.std::_Hashtable.41" }
%"class.std::_Hashtable.41" = type { ptr, i64, %"struct.std::__detail::_Hash_node_base", i64, %"struct.std::__detail::_Prime_rehash_policy", ptr }
%"class.std::vector.54" = type { %"struct.std::_Vector_base.55" }
%"struct.std::_Vector_base.55" = type { %"struct.std::_Vector_base<folly::test::ThreadInfo, std::allocator<folly::test::ThreadInfo>>::_Vector_impl" }
%"struct.std::_Vector_base<folly::test::ThreadInfo, std::allocator<folly::test::ThreadInfo>>::_Vector_impl" = type { %"struct.std::_Vector_base<folly::test::ThreadInfo, std::allocator<folly::test::ThreadInfo>>::_Vector_impl_data" }
%"struct.std::_Vector_base<folly::test::ThreadInfo, std::allocator<folly::test::ThreadInfo>>::_Vector_impl_data" = type { ptr, ptr, ptr }
%"struct.folly::SingletonThreadLocal<folly::test::(anonymous namespace)::PerThreadState>::ObjectWrapper" = type { %"struct.folly::test::(anonymous namespace)::PerThreadState" }

@_ZN5folly4test21DeterministicSchedule7aux_chkE = global %"class.std::function" zeroinitializer, align 8
@_ZZN5folly20SingletonThreadLocalINS_4test12_GLOBAL__N_114PerThreadStateENS_6detail10DefaultTagENS4_11DefaultMakeIS3_EEvE3getEvE5cache = internal thread_local global %"struct.folly::detail::SingletonThreadLocalState::LocalCache" zeroinitializer, align 8

; Function Attrs: mustprogress nounwind uwtable
define linkonce_odr noundef zeroext i1 @_ZNKSt14_Function_base8_M_emptyEv(ptr noundef nonnull align 8 dereferenceable(24) %0) #1 comdat align 2 {
  %2 = alloca ptr, align 8
  store ptr %0, ptr %2, align 8, !tbaa !15
  %3 = load ptr, ptr %2, align 8
  %4 = getelementptr inbounds nuw %"class.std::_Function_base", ptr %3, i32 0, i32 1
  %5 = load ptr, ptr %4, align 8, !tbaa !18
  %6 = icmp ne ptr %5, null
  %7 = xor i1 %6, true
  ret i1 %7
}

; Function Attrs: mustprogress uwtable
define linkonce_odr void @_ZNKSt8functionIFvmEEclEm(ptr noundef nonnull align 8 dereferenceable(32) %0, i64 noundef %1) #6 comdat align 2 {
  %3 = alloca ptr, align 8
  %4 = alloca i64, align 8
  store ptr %0, ptr %3, align 8, !tbaa !7
  store i64 %1, ptr %4, align 8, !tbaa !83
  %5 = load ptr, ptr %3, align 8
  %6 = call noundef zeroext i1 @_ZNKSt14_Function_base8_M_emptyEv(ptr noundef nonnull align 8 dereferenceable(24) %5)
  br i1 %6, label %7, label %8

7:                                                ; preds = %2
  call void @_ZSt25__throw_bad_function_callv() #31
  unreachable

8:                                                ; preds = %2
  %9 = getelementptr inbounds nuw %"class.std::function", ptr %5, i32 0, i32 1
  %10 = load ptr, ptr %9, align 8, !tbaa !12
  %11 = getelementptr inbounds nuw %"class.std::_Function_base", ptr %5, i32 0, i32 0
  call void %10(ptr noundef nonnull align 8 dereferenceable(16) %11, ptr noundef nonnull align 8 dereferenceable(8) %4)
  ret void
}

; Function Attrs: mustprogress nounwind uwtable
define linkonce_odr noundef zeroext i1 @_ZNKSt8functionIFvmEEcvbEv(ptr noundef nonnull align 8 dereferenceable(32) %0) #1 comdat align 2 {
  %2 = alloca ptr, align 8
  store ptr %0, ptr %2, align 8, !tbaa !7
  %3 = load ptr, ptr %2, align 8
  %4 = call noundef zeroext i1 @_ZNKSt14_Function_base8_M_emptyEv(ptr noundef nonnull align 8 dereferenceable(24) %3)
  %5 = xor i1 %4, true
  ret i1 %5
}

; Function Attrs: mustprogress nounwind uwtable
define linkonce_odr noundef nonnull align 8 dereferenceable(32) ptr @_ZNSt8functionIFvbEEaSEDn(ptr noundef nonnull align 8 dereferenceable(32) %0, ptr %1) #1 comdat align 2 personality ptr @__gxx_personality_v0 {
  %3 = alloca ptr, align 8
  %4 = alloca ptr, align 8
  store ptr %0, ptr %3, align 8, !tbaa !301
  store ptr %1, ptr %4, align 8, !tbaa !804
  %5 = load ptr, ptr %3, align 8
  %6 = getelementptr inbounds nuw %"class.std::_Function_base", ptr %5, i32 0, i32 1
  %7 = load ptr, ptr %6, align 8, !tbaa !18
  %8 = icmp ne ptr %7, null
  br i1 %8, label %9, label %18

9:                                                ; preds = %2
  %10 = getelementptr inbounds nuw %"class.std::_Function_base", ptr %5, i32 0, i32 1
  %11 = load ptr, ptr %10, align 8, !tbaa !18
  %12 = getelementptr inbounds nuw %"class.std::_Function_base", ptr %5, i32 0, i32 0
  %13 = getelementptr inbounds nuw %"class.std::_Function_base", ptr %5, i32 0, i32 0
  %14 = invoke noundef zeroext i1 %11(ptr noundef nonnull align 8 dereferenceable(16) %12, ptr noundef nonnull align 8 dereferenceable(16) %13, i32 noundef 3)
          to label %15 unwind label %19

15:                                               ; preds = %9
  %16 = getelementptr inbounds nuw %"class.std::_Function_base", ptr %5, i32 0, i32 1
  store ptr null, ptr %16, align 8, !tbaa !18
  %17 = getelementptr inbounds nuw %"class.std::function.59", ptr %5, i32 0, i32 1
  store ptr null, ptr %17, align 8, !tbaa !303
  br label %18

18:                                               ; preds = %15, %2
  ret ptr %5

19:                                               ; preds = %9
  %20 = landingpad { ptr, i32 }
          catch ptr null
  %21 = extractvalue { ptr, i32 } %20, 0
  call void @__clang_call_terminate(ptr %21) #29
  unreachable
}

; Function Attrs: mustprogress uwtable
define linkonce_odr void @_ZNKSt8functionIFvbEEclEb(ptr noundef nonnull align 8 dereferenceable(32) %0, i1 noundef zeroext %1) #6 comdat align 2 {
  %3 = alloca ptr, align 8
  %4 = alloca i8, align 1
  store ptr %0, ptr %3, align 8, !tbaa !301
  %5 = zext i1 %1 to i8
  store i8 %5, ptr %4, align 1, !tbaa !114
  %6 = load ptr, ptr %3, align 8
  %7 = call noundef zeroext i1 @_ZNKSt14_Function_base8_M_emptyEv(ptr noundef nonnull align 8 dereferenceable(24) %6)
  br i1 %7, label %8, label %9

8:                                                ; preds = %2
  call void @_ZSt25__throw_bad_function_callv() #31
  unreachable

9:                                                ; preds = %2
  %10 = getelementptr inbounds nuw %"class.std::function.59", ptr %6, i32 0, i32 1
  %11 = load ptr, ptr %10, align 8, !tbaa !303
  %12 = getelementptr inbounds nuw %"class.std::_Function_base", ptr %6, i32 0, i32 0
  call void %11(ptr noundef nonnull align 8 dereferenceable(16) %12, ptr noundef nonnull align 1 dereferenceable(1) %4)
  ret void
}

; Function Attrs: mustprogress nounwind uwtable
define linkonce_odr noundef zeroext i1 @_ZNKSt8functionIFvbEEcvbEv(ptr noundef nonnull align 8 dereferenceable(32) %0) #1 comdat align 2 {
  %2 = alloca ptr, align 8
  store ptr %0, ptr %2, align 8, !tbaa !301
  %3 = load ptr, ptr %2, align 8
  %4 = call noundef zeroext i1 @_ZNKSt14_Function_base8_M_emptyEv(ptr noundef nonnull align 8 dereferenceable(24) %3)
  %5 = xor i1 %4, true
  ret i1 %5
}

; Function Attrs: alwaysinline mustprogress uwtable
define internal noundef nonnull align 8 dereferenceable(56) ptr @_ZN5folly20SingletonThreadLocalINS_4test12_GLOBAL__N_114PerThreadStateENS_6detail10DefaultTagENS4_11DefaultMakeIS3_EEvE3getEv() #14 align 2 {
  %1 = alloca ptr, align 8
  call void @llvm.lifetime.start.p0(i64 8, ptr %1) #2
  %2 = call align 8 ptr @llvm.threadlocal.address.p0(ptr align 8 @_ZZN5folly20SingletonThreadLocalINS_4test12_GLOBAL__N_114PerThreadStateENS_6detail10DefaultTagENS4_11DefaultMakeIS3_EEvE3getEvE5cache)
  %3 = getelementptr inbounds nuw %"struct.folly::detail::SingletonThreadLocalState::LocalCache", ptr %2, i32 0, i32 0
  %4 = load ptr, ptr %3, align 8, !tbaa !174
  store ptr %4, ptr %1, align 8, !tbaa !130
  %5 = load ptr, ptr %1, align 8, !tbaa !130
  %6 = icmp ne ptr %5, null
  %7 = xor i1 %6, true
  %8 = xor i1 %7, true
  %9 = zext i1 %8 to i64
  %10 = call i64 @llvm.expect.i64(i64 %9, i64 1)
  %11 = icmp ne i64 %10, 0
  br i1 %11, label %12, label %14

12:                                               ; preds = %0
  %13 = load ptr, ptr %1, align 8, !tbaa !130
  br label %18

14:                                               ; preds = %0
  %15 = call align 8 ptr @llvm.threadlocal.address.p0(ptr align 8 @_ZZN5folly20SingletonThreadLocalINS_4test12_GLOBAL__N_114PerThreadStateENS_6detail10DefaultTagENS4_11DefaultMakeIS3_EEvE3getEvE5cache)
  %16 = call noundef nonnull align 8 dereferenceable(168) ptr @_ZN5folly20SingletonThreadLocalINS_4test12_GLOBAL__N_114PerThreadStateENS_6detail10DefaultTagENS4_11DefaultMakeIS3_EEvE7getSlowERNS4_25SingletonThreadLocalState10LocalCacheE(ptr noundef nonnull align 8 dereferenceable(8) %15)
  %17 = getelementptr inbounds nuw %"struct.folly::SingletonThreadLocal<folly::test::(anonymous namespace)::PerThreadState>::ObjectWrapper", ptr %16, i32 0, i32 0
  br label %18

18:                                               ; preds = %14, %12
  %19 = phi ptr [ %13, %12 ], [ %17, %14 ]
  call void @llvm.lifetime.end.p0(i64 8, ptr %1) #2
  ret ptr %19
}

; Function Attrs: mustprogress uwtable
define void @_ZN5folly4test21DeterministicSchedule7callAuxEb(ptr noundef nonnull align 8 dereferenceable(288) %0, i1 noundef zeroext %1) #6 align 2 {
  %3 = alloca ptr, align 8
  %4 = alloca i8, align 1
  %5 = alloca ptr, align 8
  store ptr %0, ptr %3, align 8, !tbaa !137
  %6 = zext i1 %1 to i8
  store i8 %6, ptr %4, align 1, !tbaa !114
  %7 = load ptr, ptr %3, align 8
  call void @llvm.lifetime.start.p0(i64 8, ptr %5) #2
  %8 = call noundef nonnull align 8 dereferenceable(56) ptr @_ZN5folly20SingletonThreadLocalINS_4test12_GLOBAL__N_114PerThreadStateENS_6detail10DefaultTagENS4_11DefaultMakeIS3_EEvE3getEv()
  store ptr %8, ptr %5, align 8, !tbaa !130
  %9 = getelementptr inbounds nuw %"class.folly::test::DeterministicSchedule", ptr %7, i32 0, i32 8
  %10 = load i64, ptr %9, align 8, !tbaa !161
  %11 = add i64 %10, 1
  store i64 %11, ptr %9, align 8, !tbaa !161
  %12 = load ptr, ptr %5, align 8, !tbaa !130
  %13 = getelementptr inbounds nuw %"struct.folly::test::(anonymous namespace)::PerThreadState", ptr %12, i32 0, i32 4
  %14 = call noundef zeroext i1 @_ZNKSt8functionIFvbEEcvbEv(ptr noundef nonnull align 8 dereferenceable(32) %13) #2
  br i1 %14, label %15, label %23

15:                                               ; preds = %2
  %16 = load ptr, ptr %5, align 8, !tbaa !130
  %17 = getelementptr inbounds nuw %"struct.folly::test::(anonymous namespace)::PerThreadState", ptr %16, i32 0, i32 4
  %18 = load i8, ptr %4, align 1, !tbaa !114, !range !363, !noundef !364
  %19 = trunc i8 %18 to i1
  call void @_ZNKSt8functionIFvbEEclEb(ptr noundef nonnull align 8 dereferenceable(32) %17, i1 noundef zeroext %19)
  %20 = load ptr, ptr %5, align 8, !tbaa !130
  %21 = getelementptr inbounds nuw %"struct.folly::test::(anonymous namespace)::PerThreadState", ptr %20, i32 0, i32 4
  %22 = call noundef nonnull align 8 dereferenceable(32) ptr @_ZNSt8functionIFvbEEaSEDn(ptr noundef nonnull align 8 dereferenceable(32) %21, ptr null) #2
  br label %23

23:                                               ; preds = %15, %2
  %24 = call noundef zeroext i1 @_ZNKSt8functionIFvmEEcvbEv(ptr noundef nonnull align 8 dereferenceable(32) @_ZN5folly4test21DeterministicSchedule7aux_chkE) #2
  br i1 %24, label %25, label %28

25:                                               ; preds = %23
  %26 = getelementptr inbounds nuw %"class.folly::test::DeterministicSchedule", ptr %7, i32 0, i32 8
  %27 = load i64, ptr %26, align 8, !tbaa !161
  call void @_ZNKSt8functionIFvmEEclEm(ptr noundef nonnull align 8 dereferenceable(32) @_ZN5folly4test21DeterministicSchedule7aux_chkE, i64 noundef %27)
  br label %28

28:                                               ; preds = %25, %23
  call void @llvm.lifetime.end.p0(i64 8, ptr %5) #2
  ret void
}