; Function Attrs: mustprogress uwtable
define void @_ZN5folly4test21DeterministicSchedule7callAuxEb(ptr noundef nonnull align 8 captures(none) dereferenceable(288) %0, i1 noundef zeroext %1) local_unnamed_addr #7 align 2 personality ptr @__gxx_personality_v0 {
  %3 = alloca i64, align 8
  %4 = alloca i8, align 1
  %5 = tail call align 8 ptr @llvm.threadlocal.address.p0(ptr align 8 @_ZZN5folly20SingletonThreadLocalINS_4test12_GLOBAL__N_114PerThreadStateENS_6detail10DefaultTagENS4_11DefaultMakeIS3_EEvE3getEvE5cache)
  %6 = load ptr, ptr %5, align 8, !tbaa !43
  %.not.i = icmp eq ptr %6, null
  br i1 %.not.i, label %7, label %_ZN5folly20SingletonThreadLocalINS_4test12_GLOBAL__N_114PerThreadStateENS_6detail10DefaultTagENS4_11DefaultMakeIS3_EEvE3getEv.exit, !prof !45

7:                                                ; preds = %2
  %8 = tail call fastcc noundef nonnull align 8 dereferenceable(168) ptr @_ZN5folly20SingletonThreadLocalINS_4test12_GLOBAL__N_114PerThreadStateENS_6detail10DefaultTagENS4_11DefaultMakeIS3_EEvE7getSlowERNS4_25SingletonThreadLocalState10LocalCacheE(ptr noundef nonnull align 8 dereferenceable(8) %5)
  br label %_ZN5folly20SingletonThreadLocalINS_4test12_GLOBAL__N_114PerThreadStateENS_6detail10DefaultTagENS4_11DefaultMakeIS3_EEvE3getEv.exit

_ZN5folly20SingletonThreadLocalINS_4test12_GLOBAL__N_114PerThreadStateENS_6detail10DefaultTagENS4_11DefaultMakeIS3_EEvE3getEv.exit: ; preds = %2, %7
  %9 = phi ptr [ %8, %7 ], [ %6, %2 ]
  %10 = getelementptr inbounds nuw i8, ptr %0, i64 280
  %11 = load i64, ptr %10, align 8, !tbaa !73
  %12 = add i64 %11, 1
  store i64 %12, ptr %10, align 8, !tbaa !73
  %13 = getelementptr inbounds nuw i8, ptr %9, i64 24
  %14 = getelementptr inbounds nuw i8, ptr %9, i64 40
  %15 = load ptr, ptr %14, align 8, !tbaa !63
  %.not.i.i.not = icmp eq ptr %15, null
  br i1 %.not.i.i.not, label %_ZNSt8functionIFvbEEaSEDn.exit, label %_ZNKSt8functionIFvbEEclEb.exit

_ZNKSt8functionIFvbEEclEb.exit:                   ; preds = %_ZN5folly20SingletonThreadLocalINS_4test12_GLOBAL__N_114PerThreadStateENS_6detail10DefaultTagENS4_11DefaultMakeIS3_EEvE3getEv.exit
  call void @llvm.lifetime.start.p0(i64 1, ptr nonnull %4)
  %16 = zext i1 %1 to i8
  store i8 %16, ptr %4, align 1, !tbaa !367
  %17 = getelementptr inbounds nuw i8, ptr %9, i64 48
  %18 = load ptr, ptr %17, align 8, !tbaa !368
  call void %18(ptr noundef nonnull align 8 dereferenceable(32) %13, ptr noundef nonnull align 1 dereferenceable(1) %4)
  call void @llvm.lifetime.end.p0(i64 1, ptr nonnull %4)
  %19 = load ptr, ptr %14, align 8, !tbaa !63
  %.not.i5 = icmp eq ptr %19, null
  br i1 %.not.i5, label %_ZNSt8functionIFvbEEaSEDn.exit, label %20

20:                                               ; preds = %_ZNKSt8functionIFvbEEclEb.exit
  %21 = invoke noundef zeroext i1 %19(ptr noundef nonnull align 8 dereferenceable(32) %13, ptr noundef nonnull align 8 dereferenceable(32) %13, i32 noundef 3)
          to label %22 unwind label %23

22:                                               ; preds = %20
  call void @llvm.memset.p0.i64(ptr noundef nonnull align 8 dereferenceable(16) %14, i8 0, i64 16, i1 false)
  br label %_ZNSt8functionIFvbEEaSEDn.exit

23:                                               ; preds = %20
  %24 = landingpad { ptr, i32 }
          catch ptr null
  %25 = extractvalue { ptr, i32 } %24, 0
  call void @__clang_call_terminate(ptr %25) #36
  unreachable

_ZNSt8functionIFvbEEaSEDn.exit:                   ; preds = %22, %_ZNKSt8functionIFvbEEclEb.exit, %_ZN5folly20SingletonThreadLocalINS_4test12_GLOBAL__N_114PerThreadStateENS_6detail10DefaultTagENS4_11DefaultMakeIS3_EEvE3getEv.exit
  %26 = load ptr, ptr getelementptr inbounds nuw (i8, ptr @_ZN5folly4test21DeterministicSchedule7aux_chkE, i64 16), align 8, !tbaa !63
  %.not.i.i6.not = icmp eq ptr %26, null
  br i1 %.not.i.i6.not, label %29, label %_ZNKSt8functionIFvmEEclEm.exit

_ZNKSt8functionIFvmEEclEm.exit:                   ; preds = %_ZNSt8functionIFvbEEaSEDn.exit
  %27 = load i64, ptr %10, align 8, !tbaa !73
  call void @llvm.lifetime.start.p0(i64 8, ptr nonnull %3)
  store i64 %27, ptr %3, align 8, !tbaa !31
  %28 = load ptr, ptr getelementptr inbounds nuw (i8, ptr @_ZN5folly4test21DeterministicSchedule7aux_chkE, i64 24), align 8, !tbaa !369
  call void %28(ptr noundef nonnull align 8 dereferenceable(16) @_ZN5folly4test21DeterministicSchedule7aux_chkE, ptr noundef nonnull align 8 dereferenceable(8) %3)
  call void @llvm.lifetime.end.p0(i64 8, ptr nonnull %3)
  br label %29

29:                                               ; preds = %_ZNKSt8functionIFvmEEclEm.exit, %_ZNSt8functionIFvbEEaSEDn.exit
  ret void
}